target datalayout = "e-m:e-p270:32:32-p271:32:32-p272:64:64-i64:64-i128:128-f80:128-n8:16:32:64-S128"
target triple = "x86_64-pc-linux-gnu"

%struct.__mm_loadl_epi64_struct = type { i64 }

; Function Attrs: inlinehint nounwind uwtable
define internal void @WebPUint32ToMem(ptr noundef %0, i32 noundef %1) #5 {
  %3 = alloca ptr, align 8
  %4 = alloca i32, align 4
  store ptr %0, ptr %3, align 8, !tbaa !9
  store i32 %1, ptr %4, align 4, !tbaa !11
  %5 = load ptr, ptr %3, align 8, !tbaa !9
  call void @llvm.memcpy.p0.p0.i64(ptr align 1 %5, ptr align 4 %4, i64 4, i1 false)
  ret void
}

; Function Attrs: alwaysinline nounwind uwtable
define internal <2 x i64> @_mm_set_epi8(i8 noundef signext %0, i8 noundef signext %1, i8 noundef signext %2, i8 noundef signext %3, i8 noundef signext %4, i8 noundef signext %5, i8 noundef signext %6, i8 noundef signext %7, i8 noundef signext %8, i8 noundef signext %9, i8 noundef signext %10, i8 noundef signext %11, i8 noundef signext %12, i8 noundef signext %13, i8 noundef signext %14, i8 noundef signext %15) #3 {
  %17 = alloca i8, align 1
  %18 = alloca i8, align 1
  %19 = alloca i8, align 1
  %20 = alloca i8, align 1
  %21 = alloca i8, align 1
  %22 = alloca i8, align 1
  %23 = alloca i8, align 1
  %24 = alloca i8, align 1
  %25 = alloca i8, align 1
  %26 = alloca i8, align 1
  %27 = alloca i8, align 1
  %28 = alloca i8, align 1
  %29 = alloca i8, align 1
  %30 = alloca i8, align 1
  %31 = alloca i8, align 1
  %32 = alloca i8, align 1
  %33 = alloca <16 x i8>, align 16
  store i8 %0, ptr %17, align 1, !tbaa !13
  store i8 %1, ptr %18, align 1, !tbaa !13
  store i8 %2, ptr %19, align 1, !tbaa !13
  store i8 %3, ptr %20, align 1, !tbaa !13
  store i8 %4, ptr %21, align 1, !tbaa !13
  store i8 %5, ptr %22, align 1, !tbaa !13
  store i8 %6, ptr %23, align 1, !tbaa !13
  store i8 %7, ptr %24, align 1, !tbaa !13
  store i8 %8, ptr %25, align 1, !tbaa !13
  store i8 %9, ptr %26, align 1, !tbaa !13
  store i8 %10, ptr %27, align 1, !tbaa !13
  store i8 %11, ptr %28, align 1, !tbaa !13
  store i8 %12, ptr %29, align 1, !tbaa !13
  store i8 %13, ptr %30, align 1, !tbaa !13
  store i8 %14, ptr %31, align 1, !tbaa !13
  store i8 %15, ptr %32, align 1, !tbaa !13
  %34 = load i8, ptr %32, align 1, !tbaa !13
  %35 = insertelement <16 x i8> poison, i8 %34, i32 0
  %36 = load i8, ptr %31, align 1, !tbaa !13
  %37 = insertelement <16 x i8> %35, i8 %36, i32 1
  %38 = load i8, ptr %30, align 1, !tbaa !13
  %39 = insertelement <16 x i8> %37, i8 %38, i32 2
  %40 = load i8, ptr %29, align 1, !tbaa !13
  %41 = insertelement <16 x i8> %39, i8 %40, i32 3
  %42 = load i8, ptr %28, align 1, !tbaa !13
  %43 = insertelement <16 x i8> %41, i8 %42, i32 4
  %44 = load i8, ptr %27, align 1, !tbaa !13
  %45 = insertelement <16 x i8> %43, i8 %44, i32 5
  %46 = load i8, ptr %26, align 1, !tbaa !13
  %47 = insertelement <16 x i8> %45, i8 %46, i32 6
  %48 = load i8, ptr %25, align 1, !tbaa !13
  %49 = insertelement <16 x i8> %47, i8 %48, i32 7
  %50 = load i8, ptr %24, align 1, !tbaa !13
  %51 = insertelement <16 x i8> %49, i8 %50, i32 8
  %52 = load i8, ptr %23, align 1, !tbaa !13
  %53 = insertelement <16 x i8> %51, i8 %52, i32 9
  %54 = load i8, ptr %22, align 1, !tbaa !13
  %55 = insertelement <16 x i8> %53, i8 %54, i32 10
  %56 = load i8, ptr %21, align 1, !tbaa !13
  %57 = insertelement <16 x i8> %55, i8 %56, i32 11
  %58 = load i8, ptr %20, align 1, !tbaa !13
  %59 = insertelement <16 x i8> %57, i8 %58, i32 12
  %60 = load i8, ptr %19, align 1, !tbaa !13
  %61 = insertelement <16 x i8> %59, i8 %60, i32 13
  %62 = load i8, ptr %18, align 1, !tbaa !13
  %63 = insertelement <16 x i8> %61, i8 %62, i32 14
  %64 = load i8, ptr %17, align 1, !tbaa !13
  %65 = insertelement <16 x i8> %63, i8 %64, i32 15
  store <16 x i8> %65, ptr %33, align 16, !tbaa !13
  %66 = load <16 x i8>, ptr %33, align 16, !tbaa !13
  %67 = bitcast <16 x i8> %66 to <2 x i64>
  ret <2 x i64> %67
}

; Function Attrs: inlinehint nounwind uwtable
define internal void @WebPInt32ToMem(ptr noundef %0, i32 noundef %1) #5 {
  %3 = alloca ptr, align 8
  %4 = alloca i32, align 4
  store ptr %0, ptr %3, align 8, !tbaa !9
  store i32 %1, ptr %4, align 4, !tbaa !11
  %5 = load ptr, ptr %3, align 8, !tbaa !9
  %6 = load i32, ptr %4, align 4, !tbaa !11
  call void @WebPUint32ToMem(ptr noundef %5, i32 noundef %6)
  ret void
}

; Function Attrs: alwaysinline nounwind uwtable
define internal i32 @_mm_cvtsi128_si32(<2 x i64> noundef %0) #3 {
  %2 = alloca <2 x i64>, align 16
  %3 = alloca <4 x i32>, align 16
  store <2 x i64> %0, ptr %2, align 16, !tbaa !13
  call void @llvm.lifetime.start.p0(i64 16, ptr %3) #9
  %4 = load <2 x i64>, ptr %2, align 16, !tbaa !13
  %5 = bitcast <2 x i64> %4 to <4 x i32>
  store <4 x i32> %5, ptr %3, align 16, !tbaa !13
  %6 = load <4 x i32>, ptr %3, align 16, !tbaa !13
  %7 = extractelement <4 x i32> %6, i32 0
  call void @llvm.lifetime.end.p0(i64 16, ptr %3) #9
  ret i32 %7
}

; Function Attrs: alwaysinline nounwind uwtable
define internal <2 x i64> @_mm_subs_epu8(<2 x i64> noundef %0, <2 x i64> noundef %1) #3 {
  %3 = alloca <2 x i64>, align 16
  %4 = alloca <2 x i64>, align 16
  store <2 x i64> %0, ptr %3, align 16, !tbaa !13
  store <2 x i64> %1, ptr %4, align 16, !tbaa !13
  %5 = load <2 x i64>, ptr %3, align 16, !tbaa !13
  %6 = bitcast <2 x i64> %5 to <16 x i8>
  %7 = load <2 x i64>, ptr %4, align 16, !tbaa !13
  %8 = bitcast <2 x i64> %7 to <16 x i8>
  %9 = call <16 x i8> @llvm.usub.sat.v16i8(<16 x i8> %6, <16 x i8> %8)
  %10 = bitcast <16 x i8> %9 to <2 x i64>
  ret <2 x i64> %10
}

; Function Attrs: alwaysinline nounwind uwtable
define internal <2 x i64> @_mm_or_si128(<2 x i64> noundef %0, <2 x i64> noundef %1) #3 {
  %3 = alloca <2 x i64>, align 16
  %4 = alloca <2 x i64>, align 16
  store <2 x i64> %0, ptr %3, align 16, !tbaa !13
  store <2 x i64> %1, ptr %4, align 16, !tbaa !13
  %5 = load <2 x i64>, ptr %3, align 16, !tbaa !13
  %6 = load <2 x i64>, ptr %4, align 16, !tbaa !13
  %7 = or <2 x i64> %5, %6
  ret <2 x i64> %7
}

; Function Attrs: alwaysinline nounwind uwtable
define internal <2 x i64> @_mm_and_si128(<2 x i64> noundef %0, <2 x i64> noundef %1) #3 {
  %3 = alloca <2 x i64>, align 16
  %4 = alloca <2 x i64>, align 16
  store <2 x i64> %0, ptr %3, align 16, !tbaa !13
  store <2 x i64> %1, ptr %4, align 16, !tbaa !13
  %5 = load <2 x i64>, ptr %3, align 16, !tbaa !13
  %6 = load <2 x i64>, ptr %4, align 16, !tbaa !13
  %7 = and <2 x i64> %5, %6
  ret <2 x i64> %7
}

; Function Attrs: alwaysinline nounwind uwtable
define internal <2 x i64> @_mm_xor_si128(<2 x i64> noundef %0, <2 x i64> noundef %1) #3 {
  %3 = alloca <2 x i64>, align 16
  %4 = alloca <2 x i64>, align 16
  store <2 x i64> %0, ptr %3, align 16, !tbaa !13
  store <2 x i64> %1, ptr %4, align 16, !tbaa !13
  %5 = load <2 x i64>, ptr %3, align 16, !tbaa !13
  %6 = load <2 x i64>, ptr %4, align 16, !tbaa !13
  %7 = xor <2 x i64> %5, %6
  ret <2 x i64> %7
}

; Function Attrs: alwaysinline nounwind uwtable
define internal <2 x i64> @_mm_avg_epu8(<2 x i64> noundef %0, <2 x i64> noundef %1) #3 {
  %3 = alloca <2 x i64>, align 16
  %4 = alloca <2 x i64>, align 16
  store <2 x i64> %0, ptr %3, align 16, !tbaa !13
  store <2 x i64> %1, ptr %4, align 16, !tbaa !13
  %5 = load <2 x i64>, ptr %3, align 16, !tbaa !13
  %6 = bitcast <2 x i64> %5 to <16 x i8>
  %7 = load <2 x i64>, ptr %4, align 16, !tbaa !13
  %8 = bitcast <2 x i64> %7 to <16 x i8>
  %9 = call <16 x i8> @llvm.x86.sse2.pavg.b(<16 x i8> %6, <16 x i8> %8)
  %10 = bitcast <16 x i8> %9 to <2 x i64>
  ret <2 x i64> %10
}

; Function Attrs: alwaysinline nounwind uwtable
define internal <2 x i64> @_mm_loadl_epi64(ptr noundef %0) #3 {
  %2 = alloca ptr, align 8
  %3 = alloca <2 x i64>, align 16
  store ptr %0, ptr %2, align 8, !tbaa !3
  %4 = load ptr, ptr %2, align 8, !tbaa !3
  %5 = getelementptr inbounds nuw %struct.__mm_loadl_epi64_struct, ptr %4, i32 0, i32 0
  %6 = load i64, ptr %5, align 1, !tbaa !13
  %7 = insertelement <2 x i64> poison, i64 %6, i32 0
  %8 = insertelement <2 x i64> %7, i64 0, i32 1
  store <2 x i64> %8, ptr %3, align 16, !tbaa !13
  %9 = load <2 x i64>, ptr %3, align 16, !tbaa !13
  ret <2 x i64> %9
}

; Function Attrs: alwaysinline nounwind uwtable
define internal <2 x i64> @_mm_set1_epi8(i8 noundef signext %0) #3 {
  %2 = alloca i8, align 1
  store i8 %0, ptr %2, align 1, !tbaa !13
  %3 = load i8, ptr %2, align 1, !tbaa !13
  %4 = load i8, ptr %2, align 1, !tbaa !13
  %5 = load i8, ptr %2, align 1, !tbaa !13
  %6 = load i8, ptr %2, align 1, !tbaa !13
  %7 = load i8, ptr %2, align 1, !tbaa !13
  %8 = load i8, ptr %2, align 1, !tbaa !13
  %9 = load i8, ptr %2, align 1, !tbaa !13
  %10 = load i8, ptr %2, align 1, !tbaa !13
  %11 = load i8, ptr %2, align 1, !tbaa !13
  %12 = load i8, ptr %2, align 1, !tbaa !13
  %13 = load i8, ptr %2, align 1, !tbaa !13
  %14 = load i8, ptr %2, align 1, !tbaa !13
  %15 = load i8, ptr %2, align 1, !tbaa !13
  %16 = load i8, ptr %2, align 1, !tbaa !13
  %17 = load i8, ptr %2, align 1, !tbaa !13
  %18 = load i8, ptr %2, align 1, !tbaa !13
  %19 = call <2 x i64> @_mm_set_epi8(i8 noundef signext %3, i8 noundef signext %4, i8 noundef signext %5, i8 noundef signext %6, i8 noundef signext %7, i8 noundef signext %8, i8 noundef signext %9, i8 noundef signext %10, i8 noundef signext %11, i8 noundef signext %12, i8 noundef signext %13, i8 noundef signext %14, i8 noundef signext %15, i8 noundef signext %16, i8 noundef signext %17, i8 noundef signext %18)
  ret <2 x i64> %19
}

; Function Attrs: nounwind uwtable
define internal void @VL4_SSE2(ptr noundef %0) #1 {
  %2 = alloca ptr, align 8
  %3 = alloca <2 x i64>, align 16
  %4 = alloca <2 x i64>, align 16
  %5 = alloca <2 x i64>, align 16
  %6 = alloca <2 x i64>, align 16
  %7 = alloca <2 x i64>, align 16
  %8 = alloca <2 x i64>, align 16
  %9 = alloca <2 x i64>, align 16
  %10 = alloca <2 x i64>, align 16
  %11 = alloca <2 x i64>, align 16
  %12 = alloca <2 x i64>, align 16
  %13 = alloca <2 x i64>, align 16
  %14 = alloca <2 x i64>, align 16
  %15 = alloca <2 x i64>, align 16
  %16 = alloca i32, align 4
  store ptr %0, ptr %2, align 8, !tbaa !9
  call void @llvm.lifetime.start.p0(i64 16, ptr %3) #9
  %17 = call <2 x i64> @_mm_set1_epi8(i8 noundef signext 1)
  store <2 x i64> %17, ptr %3, align 16, !tbaa !13
  call void @llvm.lifetime.start.p0(i64 16, ptr %4) #9
  %18 = load ptr, ptr %2, align 8, !tbaa !9
  %19 = getelementptr inbounds i8, ptr %18, i64 -32
  %20 = call <2 x i64> @_mm_loadl_epi64(ptr noundef %19)
  store <2 x i64> %20, ptr %4, align 16, !tbaa !13
  call void @llvm.lifetime.start.p0(i64 16, ptr %5) #9
  %21 = load <2 x i64>, ptr %4, align 16, !tbaa !13
  %22 = bitcast <2 x i64> %21 to <16 x i8>
  %23 = shufflevector <16 x i8> %22, <16 x i8> zeroinitializer, <16 x i32> <i32 1, i32 2, i32 3, i32 4, i32 5, i32 6, i32 7, i32 8, i32 9, i32 10, i32 11, i32 12, i32 13, i32 14, i32 15, i32 16>
  %24 = bitcast <16 x i8> %23 to <2 x i64>
  store <2 x i64> %24, ptr %5, align 16, !tbaa !13
  call void @llvm.lifetime.start.p0(i64 16, ptr %6) #9
  %25 = load <2 x i64>, ptr %4, align 16, !tbaa !13
  %26 = bitcast <2 x i64> %25 to <16 x i8>
  %27 = shufflevector <16 x i8> %26, <16 x i8> zeroinitializer, <16 x i32> <i32 2, i32 3, i32 4, i32 5, i32 6, i32 7, i32 8, i32 9, i32 10, i32 11, i32 12, i32 13, i32 14, i32 15, i32 16, i32 17>
  %28 = bitcast <16 x i8> %27 to <2 x i64>
  store <2 x i64> %28, ptr %6, align 16, !tbaa !13
  call void @llvm.lifetime.start.p0(i64 16, ptr %7) #9
  %29 = load <2 x i64>, ptr %4, align 16, !tbaa !13
  %30 = load <2 x i64>, ptr %5, align 16, !tbaa !13
  %31 = call <2 x i64> @_mm_avg_epu8(<2 x i64> noundef %29, <2 x i64> noundef %30)
  store <2 x i64> %31, ptr %7, align 16, !tbaa !13
  call void @llvm.lifetime.start.p0(i64 16, ptr %8) #9
  %32 = load <2 x i64>, ptr %6, align 16, !tbaa !13
  %33 = load <2 x i64>, ptr %5, align 16, !tbaa !13
  %34 = call <2 x i64> @_mm_avg_epu8(<2 x i64> noundef %32, <2 x i64> noundef %33)
  store <2 x i64> %34, ptr %8, align 16, !tbaa !13
  call void @llvm.lifetime.start.p0(i64 16, ptr %9) #9
  %35 = load <2 x i64>, ptr %7, align 16, !tbaa !13
  %36 = load <2 x i64>, ptr %8, align 16, !tbaa !13
  %37 = call <2 x i64> @_mm_avg_epu8(<2 x i64> noundef %35, <2 x i64> noundef %36)
  store <2 x i64> %37, ptr %9, align 16, !tbaa !13
  call void @llvm.lifetime.start.p0(i64 16, ptr %10) #9
  %38 = load <2 x i64>, ptr %7, align 16, !tbaa !13
  %39 = load <2 x i64>, ptr %8, align 16, !tbaa !13
  %40 = call <2 x i64> @_mm_xor_si128(<2 x i64> noundef %38, <2 x i64> noundef %39)
  %41 = load <2 x i64>, ptr %3, align 16, !tbaa !13
  %42 = call <2 x i64> @_mm_and_si128(<2 x i64> noundef %40, <2 x i64> noundef %41)
  store <2 x i64> %42, ptr %10, align 16, !tbaa !13
  call void @llvm.lifetime.start.p0(i64 16, ptr %11) #9
  %43 = load <2 x i64>, ptr %4, align 16, !tbaa !13
  %44 = load <2 x i64>, ptr %5, align 16, !tbaa !13
  %45 = call <2 x i64> @_mm_xor_si128(<2 x i64> noundef %43, <2 x i64> noundef %44)
  store <2 x i64> %45, ptr %11, align 16, !tbaa !13
  call void @llvm.lifetime.start.p0(i64 16, ptr %12) #9
  %46 = load <2 x i64>, ptr %6, align 16, !tbaa !13
  %47 = load <2 x i64>, ptr %5, align 16, !tbaa !13
  %48 = call <2 x i64> @_mm_xor_si128(<2 x i64> noundef %46, <2 x i64> noundef %47)
  store <2 x i64> %48, ptr %12, align 16, !tbaa !13
  call void @llvm.lifetime.start.p0(i64 16, ptr %13) #9
  %49 = load <2 x i64>, ptr %11, align 16, !tbaa !13
  %50 = load <2 x i64>, ptr %12, align 16, !tbaa !13
  %51 = call <2 x i64> @_mm_or_si128(<2 x i64> noundef %49, <2 x i64> noundef %50)
  store <2 x i64> %51, ptr %13, align 16, !tbaa !13
  call void @llvm.lifetime.start.p0(i64 16, ptr %14) #9
  %52 = load <2 x i64>, ptr %13, align 16, !tbaa !13
  %53 = load <2 x i64>, ptr %10, align 16, !tbaa !13
  %54 = call <2 x i64> @_mm_and_si128(<2 x i64> noundef %52, <2 x i64> noundef %53)
  store <2 x i64> %54, ptr %14, align 16, !tbaa !13
  call void @llvm.lifetime.start.p0(i64 16, ptr %15) #9
  %55 = load <2 x i64>, ptr %9, align 16, !tbaa !13
  %56 = load <2 x i64>, ptr %14, align 16, !tbaa !13
  %57 = call <2 x i64> @_mm_subs_epu8(<2 x i64> noundef %55, <2 x i64> noundef %56)
  store <2 x i64> %57, ptr %15, align 16, !tbaa !13
  call void @llvm.lifetime.start.p0(i64 4, ptr %16) #9
  %58 = load <2 x i64>, ptr %15, align 16, !tbaa !13
  %59 = bitcast <2 x i64> %58 to <16 x i8>
  %60 = shufflevector <16 x i8> %59, <16 x i8> zeroinitializer, <16 x i32> <i32 4, i32 5, i32 6, i32 7, i32 8, i32 9, i32 10, i32 11, i32 12, i32 13, i32 14, i32 15, i32 16, i32 17, i32 18, i32 19>
  %61 = bitcast <16 x i8> %60 to <2 x i64>
  %62 = call i32 @_mm_cvtsi128_si32(<2 x i64> noundef %61)
  store i32 %62, ptr %16, align 4, !tbaa !11
  %63 = load ptr, ptr %2, align 8, !tbaa !9
  %64 = getelementptr inbounds i8, ptr %63, i64 0
  %65 = load <2 x i64>, ptr %7, align 16, !tbaa !13
  %66 = call i32 @_mm_cvtsi128_si32(<2 x i64> noundef %65)
  call void @WebPInt32ToMem(ptr noundef %64, i32 noundef %66)
  %67 = load ptr, ptr %2, align 8, !tbaa !9
  %68 = getelementptr inbounds i8, ptr %67, i64 32
  %69 = load <2 x i64>, ptr %15, align 16, !tbaa !13
  %70 = call i32 @_mm_cvtsi128_si32(<2 x i64> noundef %69)
  call void @WebPInt32ToMem(ptr noundef %68, i32 noundef %70)
  %71 = load ptr, ptr %2, align 8, !tbaa !9
  %72 = getelementptr inbounds i8, ptr %71, i64 64
  %73 = load <2 x i64>, ptr %7, align 16, !tbaa !13
  %74 = bitcast <2 x i64> %73 to <16 x i8>
  %75 = shufflevector <16 x i8> %74, <16 x i8> zeroinitializer, <16 x i32> <i32 1, i32 2, i32 3, i32 4, i32 5, i32 6, i32 7, i32 8, i32 9, i32 10, i32 11, i32 12, i32 13, i32 14, i32 15, i32 16>
  %76 = bitcast <16 x i8> %75 to <2 x i64>
  %77 = call i32 @_mm_cvtsi128_si32(<2 x i64> noundef %76)
  call void @WebPInt32ToMem(ptr noundef %72, i32 noundef %77)
  %78 = load ptr, ptr %2, align 8, !tbaa !9
  %79 = getelementptr inbounds i8, ptr %78, i64 96
  %80 = load <2 x i64>, ptr %15, align 16, !tbaa !13
  %81 = bitcast <2 x i64> %80 to <16 x i8>
  %82 = shufflevector <16 x i8> %81, <16 x i8> zeroinitializer, <16 x i32> <i32 1, i32 2, i32 3, i32 4, i32 5, i32 6, i32 7, i32 8, i32 9, i32 10, i32 11, i32 12, i32 13, i32 14, i32 15, i32 16>
  %83 = bitcast <16 x i8> %82 to <2 x i64>
  %84 = call i32 @_mm_cvtsi128_si32(<2 x i64> noundef %83)
  call void @WebPInt32ToMem(ptr noundef %79, i32 noundef %84)
  %85 = load i32, ptr %16, align 4, !tbaa !11
  %86 = lshr i32 %85, 0
  %87 = and i32 %86, 255
  %88 = trunc i32 %87 to i8
  %89 = load ptr, ptr %2, align 8, !tbaa !9
  %90 = getelementptr inbounds i8, ptr %89, i64 67
  store i8 %88, ptr %90, align 1, !tbaa !13
  %91 = load i32, ptr %16, align 4, !tbaa !11
  %92 = lshr i32 %91, 8
  %93 = and i32 %92, 255
  %94 = trunc i32 %93 to i8
  %95 = load ptr, ptr %2, align 8, !tbaa !9
  %96 = getelementptr inbounds i8, ptr %95, i64 99
  store i8 %94, ptr %96, align 1, !tbaa !13
  call void @llvm.lifetime.end.p0(i64 4, ptr %16) #9
  call void @llvm.lifetime.end.p0(i64 16, ptr %15) #9
  call void @llvm.lifetime.end.p0(i64 16, ptr %14) #9
  call void @llvm.lifetime.end.p0(i64 16, ptr %13) #9
  call void @llvm.lifetime.end.p0(i64 16, ptr %12) #9
  call void @llvm.lifetime.end.p0(i64 16, ptr %11) #9
  call void @llvm.lifetime.end.p0(i64 16, ptr %10) #9
  call void @llvm.lifetime.end.p0(i64 16, ptr %9) #9
  call void @llvm.lifetime.end.p0(i64 16, ptr %8) #9
  call void @llvm.lifetime.end.p0(i64 16, ptr %7) #9
  call void @llvm.lifetime.end.p0(i64 16, ptr %6) #9
  call void @llvm.lifetime.end.p0(i64 16, ptr %5) #9
  call void @llvm.lifetime.end.p0(i64 16, ptr %4) #9
  call void @llvm.lifetime.end.p0(i64 16, ptr %3) #9
  ret void
}