; Function Attrs: mustprogress nofree norecurse nosync nounwind willreturn memory(argmem: readwrite) uwtable
define internal void @VL4_SSE2(ptr noundef captures(none) initializes((0, 4), (32, 36), (64, 68), (96, 100)) %0) #1 {
  %2 = getelementptr inbounds i8, ptr %0, i64 -32
  %3 = load i64, ptr %2, align 1, !tbaa !7
  %4 = insertelement <2 x i64> <i64 poison, i64 0>, i64 %3, i64 0
  %5 = bitcast <2 x i64> %4 to <16 x i8>
  %6 = shufflevector <16 x i8> %5, <16 x i8> <i8 0, i8 poison, i8 poison, i8 poison, i8 poison, i8 poison, i8 poison, i8 poison, i8 poison, i8 poison, i8 poison, i8 poison, i8 poison, i8 poison, i8 poison, i8 poison>, <16 x i32> <i32 1, i32 2, i32 3, i32 4, i32 5, i32 6, i32 7, i32 8, i32 9, i32 10, i32 11, i32 12, i32 13, i32 14, i32 15, i32 16>
  %7 = bitcast <16 x i8> %6 to <2 x i64>
  %8 = shufflevector <16 x i8> %5, <16 x i8> <i8 0, i8 0, i8 poison, i8 poison, i8 poison, i8 poison, i8 poison, i8 poison, i8 poison, i8 poison, i8 poison, i8 poison, i8 poison, i8 poison, i8 poison, i8 poison>, <16 x i32> <i32 2, i32 3, i32 4, i32 5, i32 6, i32 7, i32 8, i32 9, i32 10, i32 11, i32 12, i32 13, i32 14, i32 15, i32 16, i32 17>
  %9 = tail call <16 x i8> @llvm.x86.sse2.pavg.b(<16 x i8> %5, <16 x i8> %6)
  %10 = tail call <16 x i8> @llvm.x86.sse2.pavg.b(<16 x i8> %8, <16 x i8> %6)
  %11 = tail call <16 x i8> @llvm.x86.sse2.pavg.b(<16 x i8> %9, <16 x i8> %10)
  %12 = xor <16 x i8> %10, %9
  %13 = bitcast <16 x i8> %12 to <2 x i64>
  %14 = and <2 x i64> %13, splat (i64 72340172838076673)
  %15 = xor <2 x i64> %4, %7
  %16 = xor <16 x i8> %8, %6
  %17 = bitcast <16 x i8> %16 to <2 x i64>
  %18 = or <2 x i64> %15, %17
  %19 = and <2 x i64> %14, %18
  %20 = bitcast <2 x i64> %19 to <16 x i8>
  %21 = tail call <16 x i8> @llvm.usub.sat.v16i8(<16 x i8> %11, <16 x i8> %20)
  %22 = bitcast <16 x i8> %9 to <4 x i32>
  %23 = extractelement <4 x i32> %22, i64 0
  store i32 %23, ptr %0, align 1
  %24 = getelementptr inbounds nuw i8, ptr %0, i64 32
  %25 = bitcast <16 x i8> %21 to <4 x i32>
  %26 = extractelement <4 x i32> %25, i64 0
  store i32 %26, ptr %24, align 1
  %27 = getelementptr inbounds nuw i8, ptr %0, i64 64
  %28 = shufflevector <16 x i8> %9, <16 x i8> poison, <16 x i32> <i32 1, i32 2, i32 3, i32 4, i32 poison, i32 poison, i32 poison, i32 poison, i32 poison, i32 poison, i32 poison, i32 poison, i32 poison, i32 poison, i32 poison, i32 poison>
  %29 = bitcast <16 x i8> %28 to <4 x i32>
  %30 = extractelement <4 x i32> %29, i64 0
  store i32 %30, ptr %27, align 1
  %31 = getelementptr inbounds nuw i8, ptr %0, i64 96
  %32 = shufflevector <16 x i8> %21, <16 x i8> poison, <16 x i32> <i32 1, i32 2, i32 3, i32 4, i32 poison, i32 poison, i32 poison, i32 poison, i32 poison, i32 poison, i32 poison, i32 poison, i32 poison, i32 poison, i32 poison, i32 poison>
  %33 = bitcast <16 x i8> %32 to <4 x i32>
  %34 = extractelement <4 x i32> %33, i64 0
  store i32 %34, ptr %31, align 1
  %35 = extractelement <16 x i8> %21, i64 4
  %36 = getelementptr inbounds nuw i8, ptr %0, i64 67
  store i8 %35, ptr %36, align 1, !tbaa !7
  %37 = extractelement <16 x i8> %21, i64 5
  %38 = getelementptr inbounds nuw i8, ptr %0, i64 99
  store i8 %37, ptr %38, align 1, !tbaa !7
  ret void
}